   1              		.file	"userInterface.c"
   2              		.section	.rodata.str1.1,"aMS",%progbits,1
   3              	.LC0:
   4 0000 08200800 		.ascii	"\010 \010\000"
   5              		.text
   6              		.align	2
   7              		.global	getUartLine
   9              	getUartLine:
  10              		@ args = 0, pretend = 0, frame = 4
  11              		@ frame_needed = 0, uses_anonymous_args = 0
  12 0000 70402DE9 		stmfd	sp!, {r4, r5, r6, lr}
  13 0004 04D04DE2 		sub	sp, sp, #4
  14 0008 0050A0E1 		mov	r5, r0
  15 000c 0040A0E3 		mov	r4, #0
  16 0010 03608DE2 		add	r6, sp, #3
  17              	.L9:
  18 0014 0010E0E3 		mvn	r1, #0
  19 0018 0600A0E1 		mov	r0, r6
  20 001c FEFFFFEB 		bl	uart0GetChar
  21 0020 000050E3 		cmp	r0, #0
  22 0024 FAFFFF0A 		beq	.L9
  23 0028 0320DDE5 		ldrb	r2, [sp, #3]	@ zero_extendqisi2
  24 002c 0A0052E3 		cmp	r2, #10
  25 0030 0600001A 		bne	.L3
  26 0034 0030A0E3 		mov	r3, #0
  27 0038 0430C5E7 		strb	r3, [r5, r4]
  28 003c 0200A0E1 		mov	r0, r2
  29 0040 6410A0E3 		mov	r1, #100
  30 0044 FEFFFFEB 		bl	uart0PutChar
  31 0048 04D08DE2 		add	sp, sp, #4
  32 004c 7080BDE8 		ldmfd	sp!, {r4, r5, r6, pc}
  33              	.L3:
  34 0050 0D0052E3 		cmp	r2, #13
  35 0054 EEFFFF0A 		beq	.L9
  36 0058 080052E3 		cmp	r2, #8
  37 005c 0200A0E1 		mov	r0, r2
  38 0060 6410A0E3 		mov	r1, #100
  39 0064 0800001A 		bne	.L4
  40 0068 001054E2 		subs	r1, r4, #0
  41 006c 2C009FE5 		ldr	r0, .L10
  42 0070 0200000A 		beq	.L5
  43 0074 014044E2 		sub	r4, r4, #1
  44 0078 FEFFFFEB 		bl	rprintf
  45 007c E4FFFFEA 		b	.L9
  46              	.L5:
  47 0080 0700A0E3 		mov	r0, #7
  48 0084 FEFFFFEB 		bl	uart0PutChar
  49 0088 E1FFFFEA 		b	.L9
  50              	.L4:
  51 008c FEFFFFEB 		bl	uart0PutChar
  52 0090 0330DDE5 		ldrb	r3, [sp, #3]	@ zero_extendqisi2
  53 0094 0430C5E7 		strb	r3, [r5, r4]
  54 0098 014084E2 		add	r4, r4, #1
  55 009c DCFFFFEA 		b	.L9
  56              	.L11:
  57              		.align	2
  58              	.L10:
  59 00a0 00000000 		.word	.LC0
  61              		.section	.rodata.str1.1
  62              	.LC1:
  63 0004 2D2D2D2D 		.ascii	"---------------------------------------------------"
  63      2D2D2D2D 
  63      2D2D2D2D 
  63      2D2D2D2D 
  63      2D2D2D2D 
  64 0037 2D2D2D2D 		.ascii	"---------------------------------\012\000"
  64      2D2D2D2D 
  64      2D2D2D2D 
  64      2D2D2D2D 
  64      2D2D2D2D 
  65              		.text
  66              		.align	2
  67              		.global	printLine
  69              	printLine:
  70              		@ args = 0, pretend = 0, frame = 0
  71              		@ frame_needed = 0, uses_anonymous_args = 0
  72              		@ link register save eliminated.
  73 00a4 00009FE5 		ldr	r0, .L14
  74 00a8 FEFFFFEA 		b	rprintf
  75              	.L15:
  76              		.align	2
  77              	.L14:
  78 00ac 04000000 		.word	.LC1
  80              		.section	.rodata.str1.1
  81              	.LC2:
  82 005a 596F7520 		.ascii	"You did not create an SPI Mutex\012\000"
  82      64696420 
  82      6E6F7420 
  82      63726561 
  82      74652061 
  83              	.LC3:
  84 007b 5741524E 		.ascii	"WARNING: SD CARD Could not be mounted!\012\000"
  84      494E473A 
  84      20534420 
  84      43415244 
  84      20436F75 
  85              	.LC4:
  86 00a3 4C50433A 		.ascii	"LPC: \000"
  86      2000
  87              	.LC5:
  88 00a9 2000     		.ascii	" \000"
  89              	.LC6:
  90 00ab 6563686F 		.ascii	"echo\000"
  90      00
  91              	.LC7:
  92 00b0 00       		.ascii	"\000"
  93              	.LC8:
  94 00b1 4563686F 		.ascii	"Echo: %s\012\000"
  94      3A202573 
  94      0A00
  95              	.LC9:
  96 00bb 706C6179 		.ascii	"play\000"
  96      00
  97              	.LC10:
  98 00c0 504C4159 		.ascii	"PLAY\000"
  98      00
  99              	.LC11:
 100 00c5 2E00     		.ascii	".\000"
 101              	.LC12:
 102 00c7 2E6D7033 		.ascii	".mp3\000"
 102      00
 103              	.LC13:
 104 00cc 257300   		.ascii	"%s\000"
 105              	.LC14:
 106 00cf 20202020 		.ascii	"    %s(): Sending song-name to Queue ...\012\000"
 106      25732829 
 106      3A205365 
 106      6E64696E 
 106      6720736F 
 107              	.LC15:
 108 00f9 20202020 		.ascii	"    Song Sent: %s!\012\000"
 108      536F6E67 
 108      2053656E 
 108      743A2025 
 108      73210A00 
 109              	.LC16:
 110 010d 54696D65 		.ascii	"Timeout during Send!!!\012\000"
 110      6F757420 
 110      64757269 
 110      6E672053 
 110      656E6421 
 111              	.LC17:
 112 0125 6C7300   		.ascii	"ls\000"
 113              	.LC19:
 114 0128 496E7661 		.ascii	"Invalid directory: |%s|\012\000"
 114      6C696420 
 114      64697265 
 114      63746F72 
 114      793A207C 
 115              	.LC20:
 116 0141 44697265 		.ascii	"Directory listing of: %s\012\012\000"
 116      63746F72 
 116      79206C69 
 116      7374696E 
 116      67206F66 
 117              	.LC21:
 118 015c 25632563 		.ascii	"%c%c%c%c%c %u/%2u/%2u %2u:%2u %10lu %13s\000"
 118      25632563 
 118      25632025 
 118      752F2532 
 118      752F2532 
 119              	.LC22:
 120 0185 202D2D20 		.ascii	" -- %s\000"
 120      257300
 121              	.LC23:
 122 018c 0A00     		.ascii	"\012\000"
 123              	.LC24:
 124 018e 0A253475 		.ascii	"\012%4u File(s), %10u bytes total\012%4u Dir(s)\000"
 124      2046696C 
 124      65287329 
 124      2C202531 
 124      30752062 
 125              	.LC25:
 126 01b8 2C202531 		.ascii	", %10uK bytes free\012\000"
 126      30754B20 
 126      62797465 
 126      73206672 
 126      65650A00 
 127              	.LC26:
 128 01cc 72656164 		.ascii	"read\000"
 128      00
 129              	.LC27:
 130 01d1 46696C65 		.ascii	"File to read: |%s|\012\000"
 130      20746F20 
 130      72656164 
 130      3A207C25 
 130      737C0A00 
 131              	.LC28:
 132 01e5 46696C65 		.ascii	"File successfully opened\012\000"
 132      20737563 
 132      63657373 
 132      66756C6C 
 132      79206F70 
 133              	.LC29:
 134 01ff 46696C65 		.ascii	"File Contents:\012\000"
 134      20436F6E 
 134      74656E74 
 134      733A0A00 
 135              	.LC30:
 136 020f 2D2D4661 		.ascii	"--Failed to read file after having it opened--\012\000"
 136      696C6564 
 136      20746F20 
 136      72656164 
 136      2066696C 
 137              	.LC31:
 138 023f 20202020 		.ascii	"    %s\000"
 138      257300
 139              	.LC32:
 140 0246 46696C65 		.ascii	"File is closed\012\000"
 140      20697320 
 140      636C6F73 
 140      65640A00 
 141              	.LC33:
 142 0256 4661696C 		.ascii	"Failed to open the file\012\000"
 142      65642074 
 142      6F206F70 
 142      656E2074 
 142      68652066 
 143              	.LC34:
 144 026f 77726974 		.ascii	"write\000"
 144      6500
 145              	.LC35:
 146 0275 46696C65 		.ascii	"File to write: |%s|\012\000"
 146      20746F20 
 146      77726974 
 146      653A207C 
 146      25737C0A 
 147              	.LC37:
 148 028a 4661696C 		.ascii	"Failed to write file\012\000"
 148      65642074 
 148      6F207772 
 148      69746520 
 148      66696C65 
 149              	.LC38:
 150 02a0 43524153 		.ascii	"CRASH\000"
 150      4800
 151              	.LC39:
 152 02a6 554E4445 		.ascii	"UNDEF\000"
 152      4600
 153              	.LC40:
 154 02ac 5041424F 		.ascii	"PABORT\000"
 154      525400
 155              	.LC41:
 156 02b3 4441424F 		.ascii	"DABORT\000"
 156      525400
 157              	.LC42:
 158 02ba 44656669 		.ascii	"Define the crash type as either UNDEF, PABORT, or D"
 158      6E652074 
 158      68652063 
 158      72617368 
 158      20747970 
 159 02ed 41424F52 		.ascii	"ABORT\012\000"
 159      540A00
 160              	.LC43:
 161 02f4 43505500 		.ascii	"CPU\000"
 162              	.LC44:
 163 02f8 43505572 		.ascii	"CPUr\000"
 163      00
 164              	.LC45:
 165 02fd 4350556E 		.ascii	"CPUn\000"
 165      00
 166              	.LC46:
 167 0302 44656C61 		.ascii	"Delaying for %ims.  CPU Usage will be reported afte"
 167      79696E67 
 167      20666F72 
 167      2025696D 
 167      732E2020 
 168 0335 72776172 		.ascii	"rwards...\012\000"
 168      64732E2E 
 168      2E0A00
 169              	.LC47:
 170 0340 596F7520 		.ascii	"You must define a delay time in milliseconds as par"
 170      6D757374 
 170      20646566 
 170      696E6520 
 170      61206465 
 171 0373 616D6574 		.ascii	"ameter.\012\000"
 171      65722E0A 
 171      00
 172              	.LC48:
 173 037c 696E666F 		.ascii	"info\000"
 173      00
 174              	.LC49:
 175 0381 25730A00 		.ascii	"%s\012\000"
 176              	.LC50:
 177 0385 48454C50 		.ascii	"HELP\000"
 177      00
 178              	.LC51:
 179 038a 436F6D6D 		.ascii	"Command list:\012\000"
 179      616E6420 
 179      6C697374 
 179      3A0A00
 180              	.LC52:
 181 0399 6563686F 		.ascii	"echo <anything>    - Echoes back anything sent.\012"
 181      203C616E 
 181      79746869 
 181      6E673E20 
 181      2020202D 
 182 03c9 00       		.ascii	"\000"
 183              	.LC53:
 184 03ca 6C732020 		.ascii	"ls                 - Get directory listing.\012\000"
 184      20202020 
 184      20202020 
 184      20202020 
 184      2020202D 
 185              	.LC54:
 186 03f7 43505520 		.ascii	"CPU                - Show tasks and CPU Allocation."
 186      20202020 
 186      20202020 
 186      20202020 
 186      2020202D 
 187 042a 0A00     		.ascii	"\012\000"
 188              	.LC55:
 189 042c 43505572 		.ascii	"CPUr               - Show tasks and CPU Allocation "
 189      20202020 
 189      20202020 
 189      20202020 
 189      2020202D 
 190 045f 26207265 		.ascii	"& reset counters\012\000"
 190      73657420 
 190      636F756E 
 190      74657273 
 190      0A00
 191              	.LC56:
 192 0471 4350556E 		.ascii	"CPUn <# ms>        - Reset counters, delay, then re"
 192      203C2320 
 192      6D733E20 
 192      20202020 
 192      2020202D 
 193 04a4 706F7274 		.ascii	"port CPU usage & reset counters\012\000"
 193      20435055 
 193      20757361 
 193      67652026 
 193      20726573 
 194              	.LC57:
 195 04c5 696E666F 		.ascii	"info               - Show tasks and their Stack-hig"
 195      20202020 
 195      20202020 
 195      20202020 
 195      2020202D 
 196 04f8 68207761 		.ascii	"h watermark.\012\000"
 196      7465726D 
 196      61726B2E 
 196      0A00
 197              	.LC58:
 198 0506 43524153 		.ascii	"CRASH <Param>      - Crashes the system (Parameter:"
 198      48203C50 
 198      6172616D 
 198      3E202020 
 198      2020202D 
 199 0539 20554E44 		.ascii	" UNDEF, PABORT, DABORT)\012\012\000"
 199      45462C20 
 199      5041424F 
 199      52542C20 
 199      4441424F 
 200              	.LC59:
 201 0553 436F6D6D 		.ascii	"Command not recognized.\012\000"
 201      616E6420 
 201      6E6F7420 
 201      7265636F 
 201      676E697A 
 202              	.LC18:
 203 056c 303A00   		.ascii	"0:\000"
 204              	.LC36:
 205 056f 46696C65 		.ascii	"File written using FATFS From Chen\012\000"
 205      20777269 
 205      7474656E 
 205      20757369 
 205      6E672046 
 206              		.text
 207              		.align	2
 208              		.global	uartUI
 210              	uartUI:
 211              		@ args = 0, pretend = 0, frame = 2412
 212              		@ frame_needed = 0, uses_anonymous_args = 0
 213 00b0 F04F2DE9 		stmfd	sp!, {r4, r5, r6, r7, r8, r9, sl, fp, lr}
 214 00b4 1C3090E5 		ldr	r3, [r0, #28]
 215 00b8 99DE4DE2 		sub	sp, sp, #2448
 216 00bc 000053E3 		cmp	r3, #0
 217 00c0 2C008DE5 		str	r0, [sp, #44]
 218 00c4 0200001A 		bne	.L17
 219 00c8 6C069FE5 		ldr	r0, .L67
 220 00cc FEFFFFEB 		bl	rprintf
 221              	.L18:
 222 00d0 FEFFFFEA 		b	.L18
 223              	.L17:
 224 00d4 FEFFFFEB 		bl	initialize_SSPSPI
 225 00d8 60069FE5 		ldr	r0, .L67+4
 226 00dc FEFFFFEB 		bl	initialize_I2C0
 227 00e0 2C209DE5 		ldr	r2, [sp, #44]
 228 00e4 1C0082E2 		add	r0, r2, #28
 229 00e8 FEFFFFEB 		bl	diskio_initializeSPIMutex
 230 00ec FEFFFFEB 		bl	initialize_SdCardSignals
 231 00f0 FEFFFFEB 		bl	initialize_sta013
 232 00f4 FEFFFFEB 		bl	initialize_pcm1774
 233 00f8 0000A0E3 		mov	r0, #0
 234 00fc 30108DE2 		add	r1, sp, #48
 235 0100 FEFFFFEB 		bl	f_mount
 236 0104 000050E3 		cmp	r0, #0
 237 0108 34069F15 		ldrne	r0, .L67+8
 238 010c FEFFFF1B 		blne	rprintf
 239              	.L58:
 240 0110 95CE8DE2 		add	ip, sp, #2384
 241 0114 493E8DE2 		add	r3, sp, #1168
 242 0118 04C08CE2 		add	ip, ip, #4
 243 011c 053043E2 		sub	r3, r3, #5
 244 0120 09C08CE2 		add	ip, ip, #9
 245 0124 27BE8DE2 		add	fp, sp, #624
 246 0128 28308DE5 		str	r3, [sp, #40]
 247 012c 24C08DE5 		str	ip, [sp, #36]
 248 0130 0CB04BE2 		sub	fp, fp, #12
 249              	.L61:
 250 0134 225D8DE2 		add	r5, sp, #2176
 251 0138 08069FE5 		ldr	r0, .L67+12
 252 013c 0C5085E2 		add	r5, r5, #12
 253 0140 FEFFFFEB 		bl	rprintf
 254 0144 0010A0E3 		mov	r1, #0
 255 0148 8020A0E3 		mov	r2, #128
 256 014c 0500A0E1 		mov	r0, r5
 257 0150 FEFFFFEB 		bl	memset
 258 0154 0500A0E1 		mov	r0, r5
 259 0158 FEFFFFEB 		bl	getUartLine
 260 015c 8C38DDE5 		ldrb	r3, [sp, #2188]	@ zero_extendqisi2
 261 0160 000053E3 		cmp	r3, #0
 262 0164 F2FFFF0A 		beq	.L61
 263 0168 DC159FE5 		ldr	r1, .L67+16
 264 016c 0500A0E1 		mov	r0, r5
 265 0170 FEFFFFEB 		bl	strtok
 266 0174 D4159FE5 		ldr	r1, .L67+20
 267 0178 0040A0E1 		mov	r4, r0
 268 017c FEFFFFEB 		bl	strcmp
 269 0180 000050E3 		cmp	r0, #0
 270 0184 0400001A 		bne	.L20
 271 0188 C4159FE5 		ldr	r1, .L67+24
 272 018c FEFFFFEB 		bl	strtok
 273 0190 0010A0E1 		mov	r1, r0
 274 0194 BC059FE5 		ldr	r0, .L67+28
 275 0198 460100EA 		b	.L63
 276              	.L20:
 277 019c 0400A0E1 		mov	r0, r4
 278 01a0 B4159FE5 		ldr	r1, .L67+32
 279 01a4 FEFFFFEB 		bl	strcmp
 280 01a8 000050E3 		cmp	r0, #0
 281 01ac 0400000A 		beq	.L21
 282 01b0 0400A0E1 		mov	r0, r4
 283 01b4 A4159FE5 		ldr	r1, .L67+36
 284 01b8 FEFFFFEB 		bl	strcmp
 285 01bc 000050E3 		cmp	r0, #0
 286 01c0 1C00001A 		bne	.L22
 287              	.L21:
 288 01c4 98159FE5 		ldr	r1, .L67+40
 289 01c8 0000A0E3 		mov	r0, #0
 290 01cc FEFFFFEB 		bl	strtok
 291 01d0 974E8DE2 		add	r4, sp, #2416
 292 01d4 054084E2 		add	r4, r4, #5
 293 01d8 0010A0E1 		mov	r1, r0
 294 01dc 0400A0E1 		mov	r0, r4
 295 01e0 FEFFFFEB 		bl	strcpy
 296 01e4 7C159FE5 		ldr	r1, .L67+44
 297 01e8 0400A0E1 		mov	r0, r4
 298 01ec FEFFFFEB 		bl	strcat
 299 01f0 74059FE5 		ldr	r0, .L67+48
 300 01f4 0410A0E1 		mov	r1, r4
 301 01f8 FEFFFFEB 		bl	rprintf
 302 01fc 6C059FE5 		ldr	r0, .L67+52
 303 0200 6C159FE5 		ldr	r1, .L67+56
 304 0204 FEFFFFEB 		bl	rprintf
 305 0208 2C209DE5 		ldr	r2, [sp, #44]
 306 020c 0410A0E1 		mov	r1, r4
 307 0210 000092E5 		ldr	r0, [r2, #0]
 308 0214 0030A0E3 		mov	r3, #0
 309 0218 6420A0E3 		mov	r2, #100
 310 021c FEFFFFEB 		bl	xQueueGenericSend
 311 0220 000050E3 		cmp	r0, #0
 312 0224 0410A011 		movne	r1, r4
 313 0228 48059F15 		ldrne	r0, .L67+60
 314 022c 48059F05 		ldreq	r0, .L67+64
 315 0230 3F01000A 		beq	.L62
 316 0234 1F0100EA 		b	.L63
 317              	.L22:
 318 0238 40059FE5 		ldr	r0, .L67+68
 319 023c 0410A0E1 		mov	r1, r4
 320 0240 FEFFFFEB 		bl	strcmp
 321 0244 003050E2 		subs	r3, r0, #0
 322 0248 6E00001A 		bne	.L24
 323 024c 264D8DE2 		add	r4, sp, #2432
 324 0250 0D4084E2 		add	r4, r4, #13
 325 0254 28159FE5 		ldr	r1, .L67+72
 326 0258 0320A0E3 		mov	r2, #3
 327 025c 0400A0E1 		mov	r0, r4
 328 0260 936E8DE2 		add	r6, sp, #2352
 329 0264 84398DE5 		str	r3, [sp, #2436]
 330 0268 FEFFFFEB 		bl	memcpy
 331 026c 0410A0E1 		mov	r1, r4
 332 0270 0600A0E1 		mov	r0, r6
 333 0274 FEFFFFEB 		bl	f_opendir
 334 0278 005050E2 		subs	r5, r0, #0
 335 027c 0410A011 		movne	r1, r4
 336 0280 00059F15 		ldrne	r0, .L67+76
 337 0284 0B01001A 		bne	.L63
 338 0288 0410A0E1 		mov	r1, r4
 339 028c F8049FE5 		ldr	r0, .L67+80
 340 0290 FEFFFFEB 		bl	rprintf
 341 0294 05A0A0E1 		mov	sl, r5
 342 0298 0590A0E1 		mov	r9, r5
 343              	.L37:
 344 029c 951E8DE2 		add	r1, sp, #2384
 345 02a0 1A3D8DE2 		add	r3, sp, #1664
 346 02a4 0C3083E2 		add	r3, r3, #12
 347 02a8 02CCA0E3 		mov	ip, #512
 348 02ac 041081E2 		add	r1, r1, #4
 349 02b0 930E8DE2 		add	r0, sp, #2352
 350 02b4 6C398DE5 		str	r3, [sp, #2412]
 351 02b8 70C98DE5 		str	ip, [sp, #2416]
 352 02bc FEFFFFEB 		bl	f_readdir
 353 02c0 FF0010E3 		tst	r0, #255
 354 02c4 3900001A 		bne	.L26
 355 02c8 5D39DDE5 		ldrb	r3, [sp, #2397]	@ zero_extendqisi2
 356 02cc 000053E3 		cmp	r3, #0
 357 02d0 3600000A 		beq	.L26
 358 02d4 5C09DDE5 		ldrb	r0, [sp, #2396]	@ zero_extendqisi2
 359 02d8 100010E3 		tst	r0, #16
 360 02dc 84399D05 		ldreq	r3, [sp, #2436]
 361 02e0 54299D05 		ldreq	r2, [sp, #2388]
 362 02e4 02308300 		addeq	r3, r3, r2
 363 02e8 092C8DE2 		add	r2, sp, #2304
 364 02ec B845D2E1 		ldrh	r4, [r2, #88]
 365 02f0 A4C4A0E1 		mov	ip, r4, lsr #9
 366 02f4 7BCE8CE2 		add	ip, ip, #1968
 367 02f8 4410A013 		movne	r1, #68
 368 02fc 84398D05 		streq	r3, [sp, #2436]
 369 0300 2D10A003 		moveq	r1, #45
 370 0304 093C8DE2 		add	r3, sp, #2304
 371 0308 01908912 		addne	r9, r9, #1
 372 030c 01A08A02 		addeq	sl, sl, #1
 373 0310 0CC08CE2 		add	ip, ip, #12
 374 0314 010010E3 		tst	r0, #1
 375 0318 BA65D3E1 		ldrh	r6, [r3, #90]
 376 031c 5220A013 		movne	r2, #82
 377 0320 2D20A003 		moveq	r2, #45
 378 0324 08C08DE5 		str	ip, [sp, #8]
 379 0328 020010E3 		tst	r0, #2
 380 032c 54C99DE5 		ldr	ip, [sp, #2388]
 381 0330 4830A013 		movne	r3, #72
 382 0334 2D30A003 		moveq	r3, #45
 383 0338 040010E3 		tst	r0, #4
 384 033c 5380A013 		movne	r8, #83
 385 0340 2D80A003 		moveq	r8, #45
 386 0344 1CC08DE5 		str	ip, [sp, #28]
 387 0348 200010E3 		tst	r0, #32
 388 034c 24C09DE5 		ldr	ip, [sp, #36]
 389 0350 A652A0E1 		mov	r5, r6, lsr #5
 390 0354 A4E2A0E1 		mov	lr, r4, lsr #5
 391 0358 4170A013 		movne	r7, #65
 392 035c 2D70A003 		moveq	r7, #45
 393 0360 0FE00EE2 		and	lr, lr, #15
 394 0364 1F4004E2 		and	r4, r4, #31
 395 0368 3F5005E2 		and	r5, r5, #63
 396 036c A665A0E1 		mov	r6, r6, lsr #11
 397 0370 18049FE5 		ldr	r0, .L67+84
 398 0374 0CE08DE5 		str	lr, [sp, #12]
 399 0378 20C08DE5 		str	ip, [sp, #32]
 400 037c 00808DE5 		str	r8, [sp, #0]
 401 0380 04708DE5 		str	r7, [sp, #4]
 402 0384 10408DE5 		str	r4, [sp, #16]
 403 0388 14608DE5 		str	r6, [sp, #20]
 404 038c 18508DE5 		str	r5, [sp, #24]
 405 0390 FEFFFFEB 		bl	iprintf
 406 0394 1A1D8DE2 		add	r1, sp, #1664
 407 0398 0C1081E2 		add	r1, r1, #12
 408 039c F0039FE5 		ldr	r0, .L67+88
 409 03a0 FEFFFFEB 		bl	iprintf
 410 03a4 EC039FE5 		ldr	r0, .L67+92
 411 03a8 FEFFFFEB 		bl	iprintf
 412 03ac BAFFFFEA 		b	.L37
 413              	.L26:
 414 03b0 0A10A0E1 		mov	r1, sl
 415 03b4 0930A0E1 		mov	r3, r9
 416 03b8 84299DE5 		ldr	r2, [sp, #2436]
 417 03bc D8039FE5 		ldr	r0, .L67+96
 418 03c0 FEFFFFEB 		bl	iprintf
 419 03c4 220D8DE2 		add	r0, sp, #2176
 420 03c8 261D8DE2 		add	r1, sp, #2432
 421 03cc 262D8DE2 		add	r2, sp, #2432
 422 03d0 0C0080E2 		add	r0, r0, #12
 423 03d4 041081E2 		add	r1, r1, #4
 424 03d8 082082E2 		add	r2, r2, #8
 425 03dc FEFFFFEB 		bl	f_getfree
 426 03e0 000050E3 		cmp	r0, #0
 427 03e4 52FFFF1A 		bne	.L61
 428 03e8 88399DE5 		ldr	r3, [sp, #2440]
 429 03ec 0220D3E5 		ldrb	r2, [r3, #2]	@ zero_extendqisi2
 430 03f0 84399DE5 		ldr	r3, [sp, #2436]
 431 03f4 930201E0 		mul	r1, r3, r2
 432 03f8 A0039FE5 		ldr	r0, .L67+100
 433 03fc A110A0E1 		mov	r1, r1, lsr #1
 434 0400 FEFFFFEB 		bl	iprintf
 435 0404 4AFFFFEA 		b	.L61
 436              	.L24:
 437 0408 0400A0E1 		mov	r0, r4
 438 040c 90139FE5 		ldr	r1, .L67+104
 439 0410 FEFFFFEB 		bl	strcmp
 440 0414 000050E3 		cmp	r0, #0
 441 0418 2900001A 		bne	.L38
 442 041c 30139FE5 		ldr	r1, .L67+24
 443 0420 FEFFFFEB 		bl	strtok
 444 0424 0010A0E1 		mov	r1, r0
 445 0428 0040A0E1 		mov	r4, r0
 446 042c 74039FE5 		ldr	r0, .L67+108
 447 0430 FEFFFFEB 		bl	rprintf
 448 0434 0B00A0E1 		mov	r0, fp
 449 0438 0410A0E1 		mov	r1, r4
 450 043c 0120A0E3 		mov	r2, #1
 451 0440 FEFFFFEB 		bl	f_open
 452 0444 005050E2 		subs	r5, r0, #0
 453 0448 4400001A 		bne	.L44
 454 044c 58039FE5 		ldr	r0, .L67+112
 455 0450 FEFFFFEB 		bl	rprintf
 456 0454 994E8DE2 		add	r4, sp, #2448
 457 0458 0510A0E1 		mov	r1, r5
 458 045c 4C239FE5 		ldr	r2, .L67+116
 459 0460 28009DE5 		ldr	r0, [sp, #40]
 460 0464 FEFFFFEB 		bl	memset
 461 0468 44039FE5 		ldr	r0, .L67+120
 462 046c 0C5024E5 		str	r5, [r4, #-12]!
 463 0470 FEFFFFEB 		bl	rprintf
 464 0474 3C039FE5 		ldr	r0, .L67+124
 465 0478 FEFFFFEB 		bl	rprintf
 466              	.L42:
 467 047c 28109DE5 		ldr	r1, [sp, #40]
 468 0480 022CA0E3 		mov	r2, #512
 469 0484 0430A0E1 		mov	r3, r4
 470 0488 0B00A0E1 		mov	r0, fp
 471 048c FEFFFFEB 		bl	f_read
 472 0490 000050E3 		cmp	r0, #0
 473 0494 28109DE5 		ldr	r1, [sp, #40]
 474 0498 1C039FE5 		ldr	r0, .L67+128
 475 049c 0200000A 		beq	.L40
 476 04a0 18039FE5 		ldr	r0, .L67+132
 477 04a4 FEFFFFEB 		bl	rprintf
 478 04a8 030000EA 		b	.L41
 479              	.L40:
 480 04ac FEFFFFEB 		bl	rprintf
 481 04b0 84399DE5 		ldr	r3, [sp, #2436]
 482 04b4 020C53E3 		cmp	r3, #512
 483 04b8 EFFFFF0A 		beq	.L42
 484              	.L41:
 485 04bc F4029FE5 		ldr	r0, .L67+124
 486 04c0 210000EA 		b	.L66
 487              	.L38:
 488 04c4 0400A0E1 		mov	r0, r4
 489 04c8 F4129FE5 		ldr	r1, .L67+136
 490 04cc FEFFFFEB 		bl	strcmp
 491 04d0 000050E3 		cmp	r0, #0
 492 04d4 2300001A 		bne	.L43
 493 04d8 74129FE5 		ldr	r1, .L67+24
 494 04dc FEFFFFEB 		bl	strtok
 495 04e0 0010A0E1 		mov	r1, r0
 496 04e4 0040A0E1 		mov	r4, r0
 497 04e8 D8029FE5 		ldr	r0, .L67+140
 498 04ec FEFFFFEB 		bl	rprintf
 499 04f0 0B00A0E1 		mov	r0, fp
 500 04f4 0410A0E1 		mov	r1, r4
 501 04f8 0A20A0E3 		mov	r2, #10
 502 04fc FEFFFFEB 		bl	f_open
 503 0500 005050E2 		subs	r5, r0, #0
 504 0504 1500001A 		bne	.L44
 505 0508 094C8DE2 		add	r4, sp, #2304
 506 050c 98029FE5 		ldr	r0, .L67+112
 507 0510 0C4084E2 		add	r4, r4, #12
 508 0514 FEFFFFEB 		bl	rprintf
 509 0518 AC129FE5 		ldr	r1, .L67+144
 510 051c 2420A0E3 		mov	r2, #36
 511 0520 0400A0E1 		mov	r0, r4
 512 0524 FEFFFFEB 		bl	memcpy
 513 0528 993E8DE2 		add	r3, sp, #2448
 514 052c 0C5023E5 		str	r5, [r3, #-12]!
 515 0530 0410A0E1 		mov	r1, r4
 516 0534 0B00A0E1 		mov	r0, fp
 517 0538 2420A0E3 		mov	r2, #36
 518 053c FEFFFFEB 		bl	f_write
 519 0540 000050E3 		cmp	r0, #0
 520 0544 0100000A 		beq	.L45
 521 0548 80029FE5 		ldr	r0, .L67+148
 522              	.L66:
 523 054c FEFFFFEB 		bl	rprintf
 524              	.L45:
 525 0550 0B00A0E1 		mov	r0, fp
 526 0554 FEFFFFEB 		bl	f_close
 527 0558 74029FE5 		ldr	r0, .L67+152
 528 055c 740000EA 		b	.L62
 529              	.L44:
 530 0560 70029FE5 		ldr	r0, .L67+156
 531 0564 720000EA 		b	.L62
 532              	.L43:
 533 0568 0400A0E1 		mov	r0, r4
 534 056c 68129FE5 		ldr	r1, .L67+160
 535 0570 FEFFFFEB 		bl	strcmp
 536 0574 000050E3 		cmp	r0, #0
 537 0578 1700001A 		bne	.L46
 538 057c D0119FE5 		ldr	r1, .L67+24
 539 0580 FEFFFFEB 		bl	strtok
 540 0584 54129FE5 		ldr	r1, .L67+164
 541 0588 0040A0E1 		mov	r4, r0
 542 058c FEFFFFEB 		bl	strcmp
 543 0590 000050E3 		cmp	r0, #0
 544 0594 0100001A 		bne	.L47
 545 0598 FEFFFFEB 		bl	performUndefinedInstructionCrash
 546 059c E4FEFFEA 		b	.L61
 547              	.L47:
 548 05a0 0400A0E1 		mov	r0, r4
 549 05a4 38129FE5 		ldr	r1, .L67+168
 550 05a8 FEFFFFEB 		bl	strcmp
 551 05ac 000050E3 		cmp	r0, #0
 552 05b0 0100001A 		bne	.L48
 553 05b4 FEFFFFEB 		bl	performPABORTCrash
 554 05b8 DDFEFFEA 		b	.L61
 555              	.L48:
 556 05bc 0400A0E1 		mov	r0, r4
 557 05c0 20129FE5 		ldr	r1, .L67+172
 558 05c4 FEFFFFEB 		bl	strcmp
 559 05c8 000050E3 		cmp	r0, #0
 560 05cc 18029F15 		ldrne	r0, .L67+176
 561 05d0 5700001A 		bne	.L62
 562 05d4 FEFFFFEB 		bl	performDABORTCrash
 563 05d8 D5FEFFEA 		b	.L61
 564              	.L46:
 565 05dc 0400A0E1 		mov	r0, r4
 566 05e0 08129FE5 		ldr	r1, .L67+180
 567 05e4 FEFFFFEB 		bl	strcmp
 568 05e8 000050E3 		cmp	r0, #0
 569 05ec 0400001A 		bne	.L50
 570 05f0 0010A0E1 		mov	r1, r0
 571 05f4 0500A0E1 		mov	r0, r5
 572 05f8 FEFFFFEB 		bl	vTaskGetRunTimeStats
 573 05fc 0510A0E1 		mov	r1, r5
 574 0600 1F0000EA 		b	.L65
 575              	.L50:
 576 0604 0400A0E1 		mov	r0, r4
 577 0608 E4119FE5 		ldr	r1, .L67+184
 578 060c FEFFFFEB 		bl	strcmp
 579 0610 000050E3 		cmp	r0, #0
 580 0614 224D8D02 		addeq	r4, sp, #2176
 581 0618 0C408402 		addeq	r4, r4, #12
 582 061c 1400000A 		beq	.L64
 583 0620 0400A0E1 		mov	r0, r4
 584 0624 CC119FE5 		ldr	r1, .L67+188
 585 0628 FEFFFFEB 		bl	strcmp
 586 062c 000050E3 		cmp	r0, #0
 587 0630 1500001A 		bne	.L52
 588 0634 18119FE5 		ldr	r1, .L67+24
 589 0638 FEFFFFEB 		bl	strtok
 590 063c FEFFFFEB 		bl	atoi
 591 0640 005050E2 		subs	r5, r0, #0
 592 0644 B0019FD5 		ldrle	r0, .L67+192
 593 0648 390000DA 		ble	.L62
 594 064c 224D8DE2 		add	r4, sp, #2176
 595 0650 0510A0E1 		mov	r1, r5
 596 0654 A4019FE5 		ldr	r0, .L67+196
 597 0658 0C4084E2 		add	r4, r4, #12
 598 065c FEFFFFEB 		bl	rprintf
 599 0660 0400A0E1 		mov	r0, r4
 600 0664 0110A0E3 		mov	r1, #1
 601 0668 FEFFFFEB 		bl	vTaskGetRunTimeStats
 602 066c 0500A0E1 		mov	r0, r5
 603 0670 FEFFFFEB 		bl	vTaskDelay
 604              	.L64:
 605 0674 0110A0E3 		mov	r1, #1
 606 0678 0400A0E1 		mov	r0, r4
 607 067c FEFFFFEB 		bl	vTaskGetRunTimeStats
 608 0680 0410A0E1 		mov	r1, r4
 609              	.L65:
 610 0684 E0009FE5 		ldr	r0, .L67+48
 611 0688 0A0000EA 		b	.L63
 612              	.L52:
 613 068c 0400A0E1 		mov	r0, r4
 614 0690 6C119FE5 		ldr	r1, .L67+200
 615 0694 FEFFFFEB 		bl	strcmp
 616 0698 000050E3 		cmp	r0, #0
 617 069c 0700001A 		bne	.L54
 618 06a0 1A4D8DE2 		add	r4, sp, #1664
 619 06a4 0C4084E2 		add	r4, r4, #12
 620 06a8 0400A0E1 		mov	r0, r4
 621 06ac FEFFFFEB 		bl	vTaskList
 622 06b0 50019FE5 		ldr	r0, .L67+204
 623 06b4 0410A0E1 		mov	r1, r4
 624              	.L63:
 625 06b8 FEFFFFEB 		bl	rprintf
 626 06bc 9CFEFFEA 		b	.L61
 627              	.L54:
 628 06c0 0410A0E1 		mov	r1, r4
 629 06c4 40019FE5 		ldr	r0, .L67+208
 630 06c8 FEFFFFEB 		bl	strcmp
 631 06cc 000050E3 		cmp	r0, #0
 632 06d0 38019F15 		ldrne	r0, .L67+212
 633 06d4 1600001A 		bne	.L62
 634 06d8 B8009FE5 		ldr	r0, .L67+92
 635 06dc FEFFFFEB 		bl	rprintf
 636 06e0 D0009FE5 		ldr	r0, .L67+124
 637 06e4 FEFFFFEB 		bl	rprintf
 638 06e8 24019FE5 		ldr	r0, .L67+216
 639 06ec FEFFFFEB 		bl	rprintf
 640 06f0 C0009FE5 		ldr	r0, .L67+124
 641 06f4 FEFFFFEB 		bl	rprintf
 642 06f8 18019FE5 		ldr	r0, .L67+220
 643 06fc FEFFFFEB 		bl	rprintf
 644 0700 14019FE5 		ldr	r0, .L67+224
 645 0704 FEFFFFEB 		bl	rprintf
 646 0708 10019FE5 		ldr	r0, .L67+228
 647 070c FEFFFFEB 		bl	rprintf
 648 0710 0C019FE5 		ldr	r0, .L67+232
 649 0714 FEFFFFEB 		bl	rprintf
 650 0718 08019FE5 		ldr	r0, .L67+236
 651 071c FEFFFFEB 		bl	rprintf
 652 0720 04019FE5 		ldr	r0, .L67+240
 653 0724 FEFFFFEB 		bl	rprintf
 654 0728 00019FE5 		ldr	r0, .L67+244
 655 072c FEFFFFEB 		bl	rprintf
 656 0730 80009FE5 		ldr	r0, .L67+124
 657              	.L62:
 658 0734 FEFFFFEB 		bl	rprintf
 659 0738 7DFEFFEA 		b	.L61
 660              	.L68:
 661              		.align	2
 662              	.L67:
 663 073c 5A000000 		.word	.LC2
 664 0740 A0860100 		.word	100000
 665 0744 7B000000 		.word	.LC3
 666 0748 A3000000 		.word	.LC4
 667 074c A9000000 		.word	.LC5
 668 0750 AB000000 		.word	.LC6
 669 0754 B0000000 		.word	.LC7
 670 0758 B1000000 		.word	.LC8
 671 075c BB000000 		.word	.LC9
 672 0760 C0000000 		.word	.LC10
 673 0764 C5000000 		.word	.LC11
 674 0768 C7000000 		.word	.LC12
 675 076c CC000000 		.word	.LC13
 676 0770 CF000000 		.word	.LC14
 677 0774 00000000 		.word	__FUNCTION__.3296
 678 0778 F9000000 		.word	.LC15
 679 077c 0D010000 		.word	.LC16
 680 0780 25010000 		.word	.LC17
 681 0784 6C050000 		.word	.LC18
 682 0788 28010000 		.word	.LC19
 683 078c 41010000 		.word	.LC20
 684 0790 5C010000 		.word	.LC21
 685 0794 85010000 		.word	.LC22
 686 0798 8C010000 		.word	.LC23
 687 079c 8E010000 		.word	.LC24
 688 07a0 B8010000 		.word	.LC25
 689 07a4 CC010000 		.word	.LC26
 690 07a8 D1010000 		.word	.LC27
 691 07ac E5010000 		.word	.LC28
 692 07b0 01020000 		.word	513
 693 07b4 FF010000 		.word	.LC29
 694 07b8 04000000 		.word	.LC1
 695 07bc 3F020000 		.word	.LC31
 696 07c0 0F020000 		.word	.LC30
 697 07c4 6F020000 		.word	.LC34
 698 07c8 75020000 		.word	.LC35
 699 07cc 6F050000 		.word	.LC36
 700 07d0 8A020000 		.word	.LC37
 701 07d4 46020000 		.word	.LC32
 702 07d8 56020000 		.word	.LC33
 703 07dc A0020000 		.word	.LC38
 704 07e0 A6020000 		.word	.LC39
 705 07e4 AC020000 		.word	.LC40
 706 07e8 B3020000 		.word	.LC41
 707 07ec BA020000 		.word	.LC42
 708 07f0 F4020000 		.word	.LC43
 709 07f4 F8020000 		.word	.LC44
 710 07f8 FD020000 		.word	.LC45
 711 07fc 40030000 		.word	.LC47
 712 0800 02030000 		.word	.LC46
 713 0804 7C030000 		.word	.LC48
 714 0808 81030000 		.word	.LC49
 715 080c 85030000 		.word	.LC50
 716 0810 53050000 		.word	.LC59
 717 0814 8A030000 		.word	.LC51
 718 0818 99030000 		.word	.LC52
 719 081c CA030000 		.word	.LC53
 720 0820 F7030000 		.word	.LC54
 721 0824 2C040000 		.word	.LC55
 722 0828 71040000 		.word	.LC56
 723 082c C5040000 		.word	.LC57
 724 0830 06050000 		.word	.LC58
 726              		.section	.rodata
 729              	__FUNCTION__.3296:
 730 0000 75617274 		.ascii	"uartUI\000"
 730      554900
 731              		.ident	"GCC: (GNU) 4.3.2"