   1              		.file	"uart1.c"
   2              		.text
   3              		.align	2
   4              		.global	uart1Deinit
   6              	uart1Deinit:
   7              		@ args = 0, pretend = 0, frame = 0
   8              		@ frame_needed = 0, uses_anonymous_args = 0
   9              		@ link register save eliminated.
  10 0000 4020A0E3 		mov	r2, #64
  11 0004 0030E0E3 		mvn	r3, #0
  12 0008 EB2F03E5 		str	r2, [r3, #-4075]
  13 000c 1C209FE5 		ldr	r2, .L3
  14 0010 C43092E5 		ldr	r3, [r2, #196]
  15 0014 0830C3E3 		bic	r3, r3, #8
  16 0018 C43082E5 		str	r3, [r2, #196]
  17 001c 1D2842E2 		sub	r2, r2, #1900544
  18 0020 003092E5 		ldr	r3, [r2, #0]
  19 0024 0F30C3E3 		bic	r3, r3, #15
  20 0028 003082E5 		str	r3, [r2, #0]
  21 002c 1EFF2FE1 		bx	lr
  22              	.L4:
  23              		.align	2
  24              	.L3:
  25 0030 00C01FE0 		.word	-534790144
  27              		.align	2
  28              		.global	uart1PutCharPolling
  30              	uart1PutCharPolling:
  31              		@ args = 0, pretend = 0, frame = 0
  32              		@ frame_needed = 0, uses_anonymous_args = 0
  33              		@ link register save eliminated.
  34 0034 1C209FE5 		ldr	r2, .L9
  35 0038 FF0000E2 		and	r0, r0, #255
  36              	.L6:
  37 003c 143092E5 		ldr	r3, [r2, #20]
  38 0040 200013E3 		tst	r3, #32
  39 0044 FCFFFF0A 		beq	.L6
  40 0048 0C309FE5 		ldr	r3, .L9+4
  41 004c 000083E5 		str	r0, [r3, #0]
  42 0050 0100A0E3 		mov	r0, #1
  43 0054 1EFF2FE1 		bx	lr
  44              	.L10:
  45              		.align	2
  46              	.L9:
  47 0058 00C000E0 		.word	-536821760
  48 005c 000001E0 		.word	-536805376
  50              		.align	2
  51              		.global	uart1GetChar
  53              	uart1GetChar:
  54              		@ args = 0, pretend = 0, frame = 0
  55              		@ frame_needed = 0, uses_anonymous_args = 0
  56 0060 0120A0E1 		mov	r2, r1
  57 0064 20109FE5 		ldr	r1, .L13
  58 0068 0030A0E1 		mov	r3, r0
  59 006c 04E02DE5 		str	lr, [sp, #-4]!
  60 0070 000091E5 		ldr	r0, [r1, #0]
  61 0074 0310A0E1 		mov	r1, r3
  62 0078 0030A0E3 		mov	r3, #0
  63 007c FEFFFFEB 		bl	xQueueGenericReceive
  64 0080 000050E2 		subs	r0, r0, #0
  65 0084 0100A013 		movne	r0, #1
  66 0088 04F09DE4 		ldr	pc, [sp], #4
  67              	.L14:
  68              		.align	2
  69              	.L13:
  70 008c 00000000 		.word	xRX0Queue
  72              		.align	2
  73              		.global	uart1PutChar
  75              	uart1PutChar:
  76              		@ args = 0, pretend = 0, frame = 4
  77              		@ frame_needed = 0, uses_anonymous_args = 0
  78 0090 F0412DE9 		stmfd	sp!, {r4, r5, r6, r7, r8, lr}
  79 0094 9C609FE5 		ldr	r6, .L19
  80 0098 04D04DE2 		sub	sp, sp, #4
  81 009c 0000CDE5 		strb	r0, [sp, #0]
  82 00a0 0150A0E1 		mov	r5, r1
  83 00a4 FEFFFFEB 		bl	vPortEnterCritical
  84 00a8 004096E5 		ldr	r4, [r6, #0]
  85 00ac 000054E3 		cmp	r4, #0
  86 00b0 0600000A 		beq	.L16
  87 00b4 0020A0E3 		mov	r2, #0
  88 00b8 002086E5 		str	r2, [r6, #0]
  89 00bc 0030DDE5 		ldrb	r3, [sp, #0]	@ zero_extendqisi2
  90 00c0 74209FE5 		ldr	r2, .L19+4
  91 00c4 0150A0E3 		mov	r5, #1
  92 00c8 003082E5 		str	r3, [r2, #0]
  93 00cc 150000EA 		b	.L17
  94              	.L16:
  95 00d0 68709FE5 		ldr	r7, .L19+8
  96 00d4 0520A0E1 		mov	r2, r5
  97 00d8 0430A0E1 		mov	r3, r4
  98 00dc 000097E5 		ldr	r0, [r7, #0]
  99 00e0 0D10A0E1 		mov	r1, sp
 100 00e4 FEFFFFEB 		bl	xQueueGenericSend
 101 00e8 003096E5 		ldr	r3, [r6, #0]
 102 00ec 000053E3 		cmp	r3, #0
 103 00f0 0D80A0E1 		mov	r8, sp
 104 00f4 0050A0E1 		mov	r5, r0
 105 00f8 0A00000A 		beq	.L17
 106 00fc 010050E3 		cmp	r0, #1
 107 0100 0800001A 		bne	.L17
 108 0104 0420A0E1 		mov	r2, r4
 109 0108 0430A0E1 		mov	r3, r4
 110 010c 000097E5 		ldr	r0, [r7, #0]
 111 0110 0D10A0E1 		mov	r1, sp
 112 0114 FEFFFFEB 		bl	xQueueGenericReceive
 113 0118 0020DDE5 		ldrb	r2, [sp, #0]	@ zero_extendqisi2
 114 011c 18309FE5 		ldr	r3, .L19+4
 115 0120 004086E5 		str	r4, [r6, #0]
 116 0124 002083E5 		str	r2, [r3, #0]
 117              	.L17:
 118 0128 FEFFFFEB 		bl	vPortExitCritical
 119 012c 0500A0E1 		mov	r0, r5
 120 0130 04D08DE2 		add	sp, sp, #4
 121 0134 F081BDE8 		ldmfd	sp!, {r4, r5, r6, r7, r8, pc}
 122              	.L20:
 123              		.align	2
 124              	.L19:
 125 0138 08000000 		.word	lTHREEmpty0
 126 013c 000001E0 		.word	-536805376
 127 0140 04000000 		.word	xTX0Queue
 129              		.global	__udivsi3
 130              		.align	2
 131              		.global	uart1Init
 133              	uart1Init:
 134              		@ args = 0, pretend = 0, frame = 0
 135              		@ frame_needed = 0, uses_anonymous_args = 0
 136 0144 000051E3 		cmp	r1, #0
 137 0148 70402DE9 		stmfd	sp!, {r4, r5, r6, lr}
 138 014c 0150A011 		movne	r5, r1
 139 0150 4050A003 		moveq	r5, #64
 140 0154 000050E3 		cmp	r0, #0
 141 0158 0060A011 		movne	r6, r0
 142 015c 0110A0E3 		mov	r1, #1
 143 0160 0500A0E1 		mov	r0, r5
 144 0164 966CA003 		moveq	r6, #38400
 145 0168 FEFFFFEB 		bl	xQueueCreate
 146 016c F4409FE5 		ldr	r4, .L27
 147 0170 0110A0E3 		mov	r1, #1
 148 0174 000084E5 		str	r0, [r4, #0]
 149 0178 010085E2 		add	r0, r5, #1
 150 017c FEFFFFEB 		bl	xQueueCreate
 151 0180 003094E5 		ldr	r3, [r4, #0]
 152 0184 000053E3 		cmp	r3, #0
 153 0188 DC309FE5 		ldr	r3, .L27+4
 154 018c 000083E5 		str	r0, [r3, #0]
 155 0190 D8309FE5 		ldr	r3, .L27+8
 156 0194 0140A0E3 		mov	r4, #1
 157 0198 004083E5 		str	r4, [r3, #0]
 158 019c 2F00000A 		beq	.L24
 159 01a0 000050E3 		cmp	r0, #0
 160 01a4 2D00000A 		beq	.L24
 161 01a8 FEFFFFEB 		bl	vPortEnterCritical
 162 01ac C0209FE5 		ldr	r2, .L27+12
 163 01b0 003092E5 		ldr	r3, [r2, #0]
 164 01b4 0F30C3E3 		bic	r3, r3, #15
 165 01b8 053083E3 		orr	r3, r3, #5
 166 01bc 003082E5 		str	r3, [r2, #0]
 167 01c0 1D2882E2 		add	r2, r2, #1900544
 168 01c4 C43092E5 		ldr	r3, [r2, #196]
 169 01c8 083083E3 		orr	r3, r3, #8
 170 01cc C43082E5 		str	r3, [r2, #196]
 171 01d0 0612A0E1 		mov	r1, r6, asl #4
 172 01d4 9C009FE5 		ldr	r0, .L27+16
 173 01d8 FEFFFFEB 		bl	__udivsi3
 174 01dc 98109FE5 		ldr	r1, .L27+20
 175 01e0 0C3091E5 		ldr	r3, [r1, #12]
 176 01e4 2024A0E1 		mov	r2, r0, lsr #8
 177 01e8 803083E3 		orr	r3, r3, #128
 178 01ec 0C3081E5 		str	r3, [r1, #12]
 179 01f0 FF0000E2 		and	r0, r0, #255
 180 01f4 FF2002E2 		and	r2, r2, #255
 181 01f8 0730A0E3 		mov	r3, #7
 182 01fc 000081E5 		str	r0, [r1, #0]
 183 0200 042081E5 		str	r2, [r1, #4]
 184 0204 083081E5 		str	r3, [r1, #8]
 185 0208 083091E5 		ldr	r3, [r1, #8]
 186 020c 403083E3 		orr	r3, r3, #64
 187 0210 083081E5 		str	r3, [r1, #8]
 188 0214 0330A0E3 		mov	r3, #3
 189 0218 0C3081E5 		str	r3, [r1, #12]
 190 021c 0020E0E3 		mvn	r2, #0
 191 0220 F33F12E5 		ldr	r3, [r2, #-4083]
 192 0224 8030C3E3 		bic	r3, r3, #128
 193 0228 F33F02E5 		str	r3, [r2, #-4083]
 194 022c 4C309FE5 		ldr	r3, .L27+24
 195 0230 F73E02E5 		str	r3, [r2, #-3831]
 196 0234 2730A0E3 		mov	r3, #39
 197 0238 F73D02E5 		str	r3, [r2, #-3575]
 198 023c EF3F12E5 		ldr	r3, [r2, #-4079]
 199 0240 803083E3 		orr	r3, r3, #128
 200 0244 EF3F02E5 		str	r3, [r2, #-4079]
 201 0248 043091E5 		ldr	r3, [r1, #4]
 202 024c 033083E3 		orr	r3, r3, #3
 203 0250 043081E5 		str	r3, [r1, #4]
 204 0254 FEFFFFEB 		bl	vPortExitCritical
 205 0258 0400A0E1 		mov	r0, r4
 206 025c 7080BDE8 		ldmfd	sp!, {r4, r5, r6, pc}
 207              	.L24:
 208 0260 0000A0E3 		mov	r0, #0
 209 0264 7080BDE8 		ldmfd	sp!, {r4, r5, r6, pc}
 210              	.L28:
 211              		.align	2
 212              	.L27:
 213 0268 00000000 		.word	xRX0Queue
 214 026c 04000000 		.word	xTX0Queue
 215 0270 08000000 		.word	lTHREEmpty0
 216 0274 00C002E0 		.word	-536690688
 217 0278 006CDC02 		.word	48000000
 218 027c 000001E0 		.word	-536805376
 219 0280 00000000 		.word	uart1ISR
 221              		.align	2
 222              		.global	uart1ISR
 224              	uart1ISR:
 225              		@ Naked Function: prologue and epilogue provided by programmer.
 226              		@ args = 0, pretend = 0, frame = 8
 227              		@ frame_needed = 0, uses_anonymous_args = 0
 228              	@ 86 "../drivers/uart/uart1.c" 1
 229 0284 01002DE9 		STMDB	SP!, {R0}											
 230 0288 00204DE9 		STMDB	SP,{SP}^											
 231 028c 0000A0E1 		NOP														
 232 0290 04D04DE2 		SUB	SP, SP, #4											
 233 0294 0100BDE8 		LDMIA	SP!,{R0}											
 234 0298 004020E9 		STMDB	R0!, {LR}											
 235 029c 00E0A0E1 		MOV	LR, R0												
 236 02a0 0100BDE8 		LDMIA	SP!, {R0}											
 237 02a4 FF7F4EE9 		STMDB	LR,{R0-LR}^											
 238 02a8 0000A0E1 		NOP														
 239 02ac 3CE04EE2 		SUB	LR, LR, #60											
 240 02b0 00004FE1 		MRS	R0, SPSR											
 241 02b4 01002EE9 		STMDB	LR!, {R0}											
 242 02b8 A0019FE5 		LDR	R0, =ulCriticalNesting								
 243 02bc 000090E5 		LDR	R0, [R0]											
 244 02c0 01002EE9 		STMDB	LR!, {R0}											
 245 02c4 98019FE5 		LDR	R0, =pxCurrentTCB									
 246 02c8 000090E5 		LDR	R0, [R0]											
 247 02cc 00E080E5 		STR	LR, [R0]											
 248              		
 249              	@ 0 "" 2
 250 02d0 6C319FE5 		ldr	r3, .L43
 251 02d4 003093E5 		ldr	r3, [r3, #0]
 252 02d8 68319FE5 		ldr	r3, .L43+4
 253 02dc 003093E5 		ldr	r3, [r3, #0]
 254 02e0 FEFFFFEB 		bl	runTimeStatISREntry
 255 02e4 0030A0E3 		mov	r3, #0
 256 02e8 00308DE5 		str	r3, [sp, #0]
 257 02ec 58319FE5 		ldr	r3, .L43+8
 258 02f0 082093E5 		ldr	r2, [r3, #8]
 259 02f4 0F3002E2 		and	r3, r2, #15
 260 02f8 023043E2 		sub	r3, r3, #2
 261 02fc 0A0053E3 		cmp	r3, #10
 262 0300 03F19F97 		ldrls	pc, [pc, r3, asl #2]
 263 0304 370000EA 		b	.L30
 264              	.L34:
 265 0308 44030000 		.word	.L31
 266 030c E8030000 		.word	.L30
 267 0310 C0030000 		.word	.L32
 268 0314 E8030000 		.word	.L30
 269 0318 34030000 		.word	.L33
 270 031c E8030000 		.word	.L30
 271 0320 E8030000 		.word	.L30
 272 0324 E8030000 		.word	.L30
 273 0328 E8030000 		.word	.L30
 274 032c E8030000 		.word	.L30
 275 0330 C0030000 		.word	.L32
 276              	.L33:
 277 0334 10319FE5 		ldr	r3, .L43+8
 278 0338 143093E5 		ldr	r3, [r3, #20]
 279 033c 0730CDE5 		strb	r3, [sp, #7]
 280 0340 280000EA 		b	.L30
 281              	.L31:
 282 0344 C00012E3 		tst	r2, #192
 283 0348 1040A013 		movne	r4, #16
 284 034c 0140A003 		moveq	r4, #1
 285 0350 F8809FE5 		ldr	r8, .L43+12
 286 0354 07708DE2 		add	r7, sp, #7
 287 0358 0D60A0E1 		mov	r6, sp
 288 035c F0509FE5 		ldr	r5, .L43+16
 289 0360 010000EA 		b	.L36
 290              	.L38:
 291 0364 D730DDE1 		ldrsb	r3, [sp, #7]
 292 0368 003085E5 		str	r3, [r5, #0]
 293              	.L36:
 294 036c 013044E2 		sub	r3, r4, #1
 295 0370 FF4003E2 		and	r4, r3, #255
 296 0374 FF0054E3 		cmp	r4, #255
 297 0378 0710A0E1 		mov	r1, r7
 298 037c 0D20A0E1 		mov	r2, sp
 299 0380 0300000A 		beq	.L37
 300 0384 000098E5 		ldr	r0, [r8, #0]
 301 0388 FEFFFFEB 		bl	xQueueReceiveFromISR
 302 038c 000050E3 		cmp	r0, #0
 303 0390 F3FFFF1A 		bne	.L38
 304              	.L37:
 305 0394 043CA0E1 		mov	r3, r4, asl #24
 306 0398 000053E3 		cmp	r3, #0
 307 039c B4309FC5 		ldrgt	r3, .L43+20
 308 03a0 0120A0C3 		movgt	r2, #1
 309 03a4 002083C5 		strgt	r2, [r3, #0]
 310 03a8 0E0000EA 		b	.L30
 311              	.L39:
 312 03ac 00C094E5 		ldr	ip, [r4, #0]
 313 03b0 000097E5 		ldr	r0, [r7, #0]
 314 03b4 07C0CDE5 		strb	ip, [sp, #7]
 315 03b8 FEFFFFEB 		bl	xQueueGenericSendFromISR
 316 03bc 030000EA 		b	.L42
 317              	.L32:
 318 03c0 84409FE5 		ldr	r4, .L43+8
 319 03c4 90709FE5 		ldr	r7, .L43+24
 320 03c8 07608DE2 		add	r6, sp, #7
 321 03cc 0D50A0E1 		mov	r5, sp
 322              	.L42:
 323 03d0 140094E5 		ldr	r0, [r4, #20]
 324 03d4 010010E3 		tst	r0, #1
 325 03d8 0610A0E1 		mov	r1, r6
 326 03dc 0D20A0E1 		mov	r2, sp
 327 03e0 0030A0E3 		mov	r3, #0
 328 03e4 F0FFFF1A 		bne	.L39
 329              	.L30:
 330 03e8 0030A0E3 		mov	r3, #0
 331 03ec 0020E0E3 		mvn	r2, #0
 332 03f0 CF3F02E5 		str	r3, [r2, #-4047]
 333 03f4 00309DE5 		ldr	r3, [sp, #0]
 334 03f8 000053E3 		cmp	r3, #0
 335 03fc FEFFFF1B 		blne	vTaskSwitchContext
 336              	.L40:
 337 0400 FEFFFFEB 		bl	runTimeStatISRExit
 338              	@ 90 "../drivers/uart/uart1.c" 1
 339 0404 58009FE5 		LDR		R0, =pxCurrentTCB								
 340 0408 000090E5 		LDR		R0, [R0]										
 341 040c 00E090E5 		LDR		LR, [R0]										
 342 0410 48009FE5 		LDR		R0, =ulCriticalNesting							
 343 0414 0200BEE8 		LDMFD	LR!, {R1}											
 344 0418 001080E5 		STR		R1, [R0]										
 345 041c 0100BEE8 		LDMFD	LR!, {R0}											
 346 0420 00F069E1 		MSR		SPSR, R0										
 347 0424 FF7FDEE8 		LDMFD	LR, {R0-R14}^										
 348 0428 0000A0E1 		NOP														
 349 042c 3CE09EE5 		LDR		LR, [LR, #+60]									
 350 0430 04F05EE2 		SUBS	PC, LR, #4											
 351              		
 352              	@ 0 "" 2
 353 0434 08309FE5 		ldr	r3, .L43
 354 0438 003093E5 		ldr	r3, [r3, #0]
 355 043c 04309FE5 		ldr	r3, .L43+4
 356 0440 003093E5 		ldr	r3, [r3, #0]
 357              	.L44:
 358              		.align	2
 359              	.L43:
 360 0444 00000000 		.word	ulCriticalNesting
 361 0448 00000000 		.word	pxCurrentTCB
 362 044c 000001E0 		.word	-536805376
 363 0450 04000000 		.word	xTX0Queue
 364 0454 00C000E0 		.word	-536821760
 365 0458 08000000 		.word	lTHREEmpty0
 366 045c 00000000 		.word	xRX0Queue
 368              		.bss
 369              		.align	2
 370              	xRX0Queue:
 371 0000 00000000 		.space	4
 372              		.align	2
 373              	xTX0Queue:
 374 0004 00000000 		.space	4
 375              		.align	2
 376              	lTHREEmpty0:
 377 0008 00000000 		.space	4
 378              		.ident	"GCC: (GNU) 4.3.2"